; Function Attrs: mustprogress nofree norecurse nosync nounwind ssp willreturn memory(argmem: write) uwtable
define void @_ZNK6open3d13visualization14ColorMapWinter8GetColorEd(ptr dead_on_unwind noalias writable writeonly sret(%"class.Eigen::Matrix") align 8 captures(none) initializes((0, 24)) %0, ptr nonnull readnone align 8 captures(none) %1, double noundef %2) unnamed_addr #1 align 2 {
  %4 = fcmp olt double %2, 0.000000e+00
  br i1 %4, label %_ZNK6open3d13visualization8ColorMap11InterpolateEddddd.exit4, label %5

5:                                                ; preds = %3
  %6 = fcmp ogt double %2, 1.000000e+00
  br i1 %6, label %_ZNK6open3d13visualization8ColorMap11InterpolateEddddd.exit4, label %7

7:                                                ; preds = %5
  %8 = fadd double %2, 0.000000e+00
  %9 = fmul double %2, 5.000000e-01
  %10 = fsub double 1.000000e+00, %9
  br label %_ZNK6open3d13visualization8ColorMap11InterpolateEddddd.exit4

_ZNK6open3d13visualization8ColorMap11InterpolateEddddd.exit4: ; preds = %3, %5, %7
  %.0.i9 = phi double [ %8, %7 ], [ 1.000000e+00, %5 ], [ 0.000000e+00, %3 ]
  %.0.i3 = phi double [ %10, %7 ], [ 5.000000e-01, %5 ], [ 1.000000e+00, %3 ]
  store double 0.000000e+00, ptr %0, align 8, !tbaa !4
  %11 = getelementptr inbounds nuw i8, ptr %0, i64 8
  store double %.0.i9, ptr %11, align 8, !tbaa !4
  %12 = getelementptr inbounds nuw i8, ptr %0, i64 16
  store double %.0.i3, ptr %12, align 8, !tbaa !4
  ret void
}